target datalayout = "e-m:e-p270:32:32-p271:32:32-p272:64:64-i64:64-i128:128-f80:128-n8:16:32:64-S128"
target triple = "x86_64-pc-linux-gnu"

%class.ref_manager_wrapper = type { ptr }
%class.ref_pair_vector_core = type { %class.ref_manager_wrapper, %class.svector.125 }
%class.svector.125 = type { %class.vector.126 }
%class.vector.126 = type { ptr }

; Function Attrs: mustprogress nounwind uwtable
define linkonce_odr hidden noundef i32 @_ZNK6vectorISt4pairIP4exprS2_ELb0EjE4sizeEv(ptr noundef nonnull align 8 dereferenceable(8) %0) #6 comdat align 2 {
  %2 = alloca i32, align 4
  %3 = alloca ptr, align 8
  store ptr %0, ptr %3, align 8, !tbaa !900
  %4 = load ptr, ptr %3, align 8
  %5 = getelementptr inbounds nuw %class.vector.126, ptr %4, i32 0, i32 0
  %6 = load ptr, ptr %5, align 8, !tbaa !902
  %7 = icmp eq ptr %6, null
  br i1 %7, label %8, label %9

8:                                                ; preds = %1
  store i32 0, ptr %2, align 4
  br label %14

9:                                                ; preds = %1
  %10 = getelementptr inbounds nuw %class.vector.126, ptr %4, i32 0, i32 0
  %11 = load ptr, ptr %10, align 8, !tbaa !902
  %12 = getelementptr inbounds i32, ptr %11, i64 -1
  %13 = load i32, ptr %12, align 4, !tbaa !19
  store i32 %13, ptr %2, align 4
  br label %14

14:                                               ; preds = %9, %8
  %15 = load i32, ptr %2, align 4
  ret i32 %15
}

; Function Attrs: mustprogress nounwind uwtable
define linkonce_odr hidden noundef i32 @_ZNK20ref_pair_vector_coreI4expr19ref_manager_wrapperIS0_11ast_managerEE4sizeEv(ptr noundef nonnull align 8 dereferenceable(16) %0) #6 comdat align 2 {
  %2 = alloca ptr, align 8
  store ptr %0, ptr %2, align 8, !tbaa !579
  %3 = load ptr, ptr %2, align 8
  %4 = getelementptr inbounds nuw %class.ref_pair_vector_core, ptr %3, i32 0, i32 1
  %5 = call noundef i32 @_ZNK6vectorISt4pairIP4exprS2_ELb0EjE4sizeEv(ptr noundef nonnull align 8 dereferenceable(8) %4)
  ret i32 %5
}

; Function Attrs: mustprogress uwtable
define hidden noundef zeroext i1 @_ZN12seq_rewriter9reduce_eqER10ref_vectorI4expr11ast_managerES4_R15ref_pair_vectorIS1_S2_ERb(ptr noundef nonnull align 8 dereferenceable(497) %0, ptr noundef nonnull align 8 dereferenceable(16) %1, ptr noundef nonnull align 8 dereferenceable(16) %2, ptr noundef nonnull align 8 dereferenceable(16) %3, ptr noundef nonnull align 1 dereferenceable(1) %4) #4 align 2 {
  %6 = alloca ptr, align 8
  %7 = alloca ptr, align 8
  %8 = alloca ptr, align 8
  %9 = alloca ptr, align 8
  %10 = alloca ptr, align 8
  %11 = alloca i32, align 4
  %12 = alloca i32, align 4
  %13 = alloca i32, align 4
  store ptr %0, ptr %6, align 8, !tbaa !259
  store ptr %1, ptr %7, align 8, !tbaa !312
  store ptr %2, ptr %8, align 8, !tbaa !312
  store ptr %3, ptr %9, align 8, !tbaa !572
  store ptr %4, ptr %10, align 8, !tbaa !314
  %14 = load ptr, ptr %6, align 8
  call void @llvm.lifetime.start.p0(i64 4, ptr %11) #3
  %15 = load ptr, ptr %7, align 8, !tbaa !312
  %16 = call noundef i32 @_ZNK15ref_vector_coreI4expr19ref_manager_wrapperIS0_11ast_managerEE4hashEv(ptr noundef nonnull align 8 dereferenceable(16) %15)
  store i32 %16, ptr %11, align 4, !tbaa !19
  call void @llvm.lifetime.start.p0(i64 4, ptr %12) #3
  %17 = load ptr, ptr %8, align 8, !tbaa !312
  %18 = call noundef i32 @_ZNK15ref_vector_coreI4expr19ref_manager_wrapperIS0_11ast_managerEE4hashEv(ptr noundef nonnull align 8 dereferenceable(16) %17)
  store i32 %18, ptr %12, align 4, !tbaa !19
  call void @llvm.lifetime.start.p0(i64 4, ptr %13) #3
  %19 = load ptr, ptr %9, align 8, !tbaa !572
  %20 = call noundef i32 @_ZNK20ref_pair_vector_coreI4expr19ref_manager_wrapperIS0_11ast_managerEE4sizeEv(ptr noundef nonnull align 8 dereferenceable(16) %19)
  store i32 %20, ptr %13, align 4, !tbaa !19
  %21 = load ptr, ptr %7, align 8, !tbaa !312
  call void @_ZN12seq_rewriter24remove_empty_and_concatsER10ref_vectorI4expr11ast_managerE(ptr noundef nonnull align 8 dereferenceable(497) %14, ptr noundef nonnull align 8 dereferenceable(16) %21)
  %22 = load ptr, ptr %8, align 8, !tbaa !312
  call void @_ZN12seq_rewriter24remove_empty_and_concatsER10ref_vectorI4expr11ast_managerE(ptr noundef nonnull align 8 dereferenceable(497) %14, ptr noundef nonnull align 8 dereferenceable(16) %22)
  %23 = load ptr, ptr %7, align 8, !tbaa !312
  %24 = load ptr, ptr %8, align 8, !tbaa !312
  %25 = load ptr, ptr %9, align 8, !tbaa !572
  %26 = call noundef zeroext i1 @_ZN12seq_rewriter11reduce_backER10ref_vectorI4expr11ast_managerES4_R15ref_pair_vectorIS1_S2_E(ptr noundef nonnull align 8 dereferenceable(497) %14, ptr noundef nonnull align 8 dereferenceable(16) %23, ptr noundef nonnull align 8 dereferenceable(16) %24, ptr noundef nonnull align 8 dereferenceable(16) %25)
  br i1 %26, label %27, label %86

27:                                               ; preds = %5
  %28 = load ptr, ptr %7, align 8, !tbaa !312
  %29 = load ptr, ptr %8, align 8, !tbaa !312
  %30 = load ptr, ptr %9, align 8, !tbaa !572
  %31 = call noundef zeroext i1 @_ZN12seq_rewriter12reduce_frontER10ref_vectorI4expr11ast_managerES4_R15ref_pair_vectorIS1_S2_E(ptr noundef nonnull align 8 dereferenceable(497) %14, ptr noundef nonnull align 8 dereferenceable(16) %28, ptr noundef nonnull align 8 dereferenceable(16) %29, ptr noundef nonnull align 8 dereferenceable(16) %30)
  br i1 %31, label %32, label %86

32:                                               ; preds = %27
  %33 = load ptr, ptr %7, align 8, !tbaa !312
  %34 = load ptr, ptr %8, align 8, !tbaa !312
  %35 = load ptr, ptr %9, align 8, !tbaa !572
  %36 = call noundef zeroext i1 @_ZN12seq_rewriter11reduce_itosER10ref_vectorI4expr11ast_managerES4_R15ref_pair_vectorIS1_S2_E(ptr noundef nonnull align 8 dereferenceable(497) %14, ptr noundef nonnull align 8 dereferenceable(16) %33, ptr noundef nonnull align 8 dereferenceable(16) %34, ptr noundef nonnull align 8 dereferenceable(16) %35)
  br i1 %36, label %37, label %86

37:                                               ; preds = %32
  %38 = load ptr, ptr %8, align 8, !tbaa !312
  %39 = load ptr, ptr %7, align 8, !tbaa !312
  %40 = load ptr, ptr %9, align 8, !tbaa !572
  %41 = call noundef zeroext i1 @_ZN12seq_rewriter11reduce_itosER10ref_vectorI4expr11ast_managerES4_R15ref_pair_vectorIS1_S2_E(ptr noundef nonnull align 8 dereferenceable(497) %14, ptr noundef nonnull align 8 dereferenceable(16) %38, ptr noundef nonnull align 8 dereferenceable(16) %39, ptr noundef nonnull align 8 dereferenceable(16) %40)
  br i1 %41, label %42, label %86

42:                                               ; preds = %37
  %43 = load ptr, ptr %7, align 8, !tbaa !312
  %44 = load ptr, ptr %8, align 8, !tbaa !312
  %45 = load ptr, ptr %9, align 8, !tbaa !572
  %46 = call noundef zeroext i1 @_ZN12seq_rewriter18reduce_value_clashER10ref_vectorI4expr11ast_managerES4_R15ref_pair_vectorIS1_S2_E(ptr noundef nonnull align 8 dereferenceable(497) %14, ptr noundef nonnull align 8 dereferenceable(16) %43, ptr noundef nonnull align 8 dereferenceable(16) %44, ptr noundef nonnull align 8 dereferenceable(16) %45)
  br i1 %46, label %47, label %86

47:                                               ; preds = %42
  %48 = load ptr, ptr %7, align 8, !tbaa !312
  %49 = load ptr, ptr %8, align 8, !tbaa !312
  %50 = load ptr, ptr %9, align 8, !tbaa !572
  %51 = call noundef zeroext i1 @_ZN12seq_rewriter16reduce_by_lengthER10ref_vectorI4expr11ast_managerES4_R15ref_pair_vectorIS1_S2_E(ptr noundef nonnull align 8 dereferenceable(497) %14, ptr noundef nonnull align 8 dereferenceable(16) %48, ptr noundef nonnull align 8 dereferenceable(16) %49, ptr noundef nonnull align 8 dereferenceable(16) %50)
  br i1 %51, label %52, label %86

52:                                               ; preds = %47
  %53 = load ptr, ptr %7, align 8, !tbaa !312
  %54 = load ptr, ptr %8, align 8, !tbaa !312
  %55 = load ptr, ptr %9, align 8, !tbaa !572
  %56 = call noundef zeroext i1 @_ZN12seq_rewriter18reduce_subsequenceER10ref_vectorI4expr11ast_managerES4_R15ref_pair_vectorIS1_S2_E(ptr noundef nonnull align 8 dereferenceable(497) %14, ptr noundef nonnull align 8 dereferenceable(16) %53, ptr noundef nonnull align 8 dereferenceable(16) %54, ptr noundef nonnull align 8 dereferenceable(16) %55)
  br i1 %56, label %57, label %86

57:                                               ; preds = %52
  %58 = load ptr, ptr %7, align 8, !tbaa !312
  %59 = load ptr, ptr %8, align 8, !tbaa !312
  %60 = load ptr, ptr %9, align 8, !tbaa !572
  %61 = call noundef zeroext i1 @_ZN12seq_rewriter18reduce_non_overlapER10ref_vectorI4expr11ast_managerES4_R15ref_pair_vectorIS1_S2_E(ptr noundef nonnull align 8 dereferenceable(497) %14, ptr noundef nonnull align 8 dereferenceable(16) %58, ptr noundef nonnull align 8 dereferenceable(16) %59, ptr noundef nonnull align 8 dereferenceable(16) %60)
  br i1 %61, label %62, label %86

62:                                               ; preds = %57
  %63 = load ptr, ptr %8, align 8, !tbaa !312
  %64 = load ptr, ptr %7, align 8, !tbaa !312
  %65 = load ptr, ptr %9, align 8, !tbaa !572
  %66 = call noundef zeroext i1 @_ZN12seq_rewriter18reduce_non_overlapER10ref_vectorI4expr11ast_managerES4_R15ref_pair_vectorIS1_S2_E(ptr noundef nonnull align 8 dereferenceable(497) %14, ptr noundef nonnull align 8 dereferenceable(16) %63, ptr noundef nonnull align 8 dereferenceable(16) %64, ptr noundef nonnull align 8 dereferenceable(16) %65)
  br i1 %66, label %67, label %86

67:                                               ; preds = %62
  %68 = load i32, ptr %11, align 4, !tbaa !19
  %69 = load ptr, ptr %7, align 8, !tbaa !312
  %70 = call noundef i32 @_ZNK15ref_vector_coreI4expr19ref_manager_wrapperIS0_11ast_managerEE4hashEv(ptr noundef nonnull align 8 dereferenceable(16) %69)
  %71 = icmp ne i32 %68, %70
  br i1 %71, label %82, label %72

72:                                               ; preds = %67
  %73 = load i32, ptr %12, align 4, !tbaa !19
  %74 = load ptr, ptr %8, align 8, !tbaa !312
  %75 = call noundef i32 @_ZNK15ref_vector_coreI4expr19ref_manager_wrapperIS0_11ast_managerEE4hashEv(ptr noundef nonnull align 8 dereferenceable(16) %74)
  %76 = icmp ne i32 %73, %75
  br i1 %76, label %82, label %77

77:                                               ; preds = %72
  %78 = load ptr, ptr %9, align 8, !tbaa !572
  %79 = call noundef i32 @_ZNK20ref_pair_vector_coreI4expr19ref_manager_wrapperIS0_11ast_managerEE4sizeEv(ptr noundef nonnull align 8 dereferenceable(16) %78)
  %80 = load i32, ptr %13, align 4, !tbaa !19
  %81 = icmp ne i32 %79, %80
  br label %82

82:                                               ; preds = %77, %72, %67
  %83 = phi i1 [ true, %72 ], [ true, %67 ], [ %81, %77 ]
  %84 = load ptr, ptr %10, align 8, !tbaa !314
  %85 = zext i1 %83 to i8
  store i8 %85, ptr %84, align 1, !tbaa !26
  br label %86

86:                                               ; preds = %82, %62, %57, %52, %47, %42, %37, %32, %27, %5
  %87 = phi i1 [ false, %62 ], [ false, %57 ], [ false, %52 ], [ false, %47 ], [ false, %42 ], [ false, %37 ], [ false, %32 ], [ false, %27 ], [ false, %5 ], [ true, %82 ]
  call void @llvm.lifetime.end.p0(i64 4, ptr %13) #3
  call void @llvm.lifetime.end.p0(i64 4, ptr %12) #3
  call void @llvm.lifetime.end.p0(i64 4, ptr %11) #3
  ret i1 %87
}