; Function Attrs: mustprogress uwtable
define hidden noundef zeroext i1 @_ZN12seq_rewriter9reduce_eqER10ref_vectorI4expr11ast_managerES4_R15ref_pair_vectorIS1_S2_ERb(ptr noundef nonnull align 8 dereferenceable(497) %0, ptr noundef nonnull align 8 dereferenceable(16) %1, ptr noundef nonnull align 8 dereferenceable(16) %2, ptr noundef nonnull align 8 dereferenceable(16) %3, ptr noundef nonnull writeonly align 1 captures(none) dereferenceable(1) %4) local_unnamed_addr #3 align 2 {
  %6 = alloca %struct.default_kind_hash_proc, align 1
  %7 = alloca %"struct.ref_vector_core<expr, ref_manager_wrapper<expr, ast_manager>>::hash_proc", align 1
  %8 = alloca %struct.default_kind_hash_proc, align 1
  %9 = alloca %"struct.ref_vector_core<expr, ref_manager_wrapper<expr, ast_manager>>::hash_proc", align 1
  %10 = getelementptr inbounds nuw i8, ptr %1, i64 8
  %11 = load ptr, ptr %10, align 8, !tbaa !89
  %12 = icmp eq ptr %11, null
  br i1 %12, label %_ZNK15ref_vector_coreI4expr19ref_manager_wrapperIS0_11ast_managerEE4hashEv.exit, label %_ZNK15ref_vector_coreI4expr19ref_manager_wrapperIS0_11ast_managerEE4sizeEv.exit.i

_ZNK15ref_vector_coreI4expr19ref_manager_wrapperIS0_11ast_managerEE4sizeEv.exit.i: ; preds = %5
  %13 = getelementptr inbounds i8, ptr %11, i64 -4
  %14 = load i32, ptr %13, align 4, !tbaa !101
  %15 = icmp eq i32 %14, 0
  br i1 %15, label %_ZNK15ref_vector_coreI4expr19ref_manager_wrapperIS0_11ast_managerEE4hashEv.exit, label %16

16:                                               ; preds = %_ZNK15ref_vector_coreI4expr19ref_manager_wrapperIS0_11ast_managerEE4sizeEv.exit.i
  call void @llvm.lifetime.start.p0(i64 1, ptr nonnull %8) #28
  call void @llvm.lifetime.start.p0(i64 1, ptr nonnull %9) #28
  %17 = call noundef i32 @_Z18get_composite_hashIPK15ref_vector_coreI4expr19ref_manager_wrapperIS1_11ast_managerEE22default_kind_hash_procIS7_ENS5_9hash_procEEjT_jRKT0_RKT1_(ptr noundef nonnull align 8 dereferenceable(16) %1, i32 noundef %14, ptr noundef nonnull align 1 dereferenceable(1) %8, ptr noundef nonnull align 1 dereferenceable(1) %9)
  call void @llvm.lifetime.end.p0(i64 1, ptr nonnull %9) #28
  call void @llvm.lifetime.end.p0(i64 1, ptr nonnull %8) #28
  br label %_ZNK15ref_vector_coreI4expr19ref_manager_wrapperIS0_11ast_managerEE4hashEv.exit

_ZNK15ref_vector_coreI4expr19ref_manager_wrapperIS0_11ast_managerEE4hashEv.exit: ; preds = %5, %_ZNK15ref_vector_coreI4expr19ref_manager_wrapperIS0_11ast_managerEE4sizeEv.exit.i, %16
  %.0.i = phi i32 [ %17, %16 ], [ 0, %_ZNK15ref_vector_coreI4expr19ref_manager_wrapperIS0_11ast_managerEE4sizeEv.exit.i ], [ 0, %5 ]
  %18 = getelementptr inbounds nuw i8, ptr %2, i64 8
  %19 = load ptr, ptr %18, align 8, !tbaa !89
  %20 = icmp eq ptr %19, null
  br i1 %20, label %_ZNK15ref_vector_coreI4expr19ref_manager_wrapperIS0_11ast_managerEE4hashEv.exit42, label %_ZNK15ref_vector_coreI4expr19ref_manager_wrapperIS0_11ast_managerEE4sizeEv.exit.i40

_ZNK15ref_vector_coreI4expr19ref_manager_wrapperIS0_11ast_managerEE4sizeEv.exit.i40: ; preds = %_ZNK15ref_vector_coreI4expr19ref_manager_wrapperIS0_11ast_managerEE4hashEv.exit
  %21 = getelementptr inbounds i8, ptr %19, i64 -4
  %22 = load i32, ptr %21, align 4, !tbaa !101
  %23 = icmp eq i32 %22, 0
  br i1 %23, label %_ZNK15ref_vector_coreI4expr19ref_manager_wrapperIS0_11ast_managerEE4hashEv.exit42, label %24

24:                                               ; preds = %_ZNK15ref_vector_coreI4expr19ref_manager_wrapperIS0_11ast_managerEE4sizeEv.exit.i40
  call void @llvm.lifetime.start.p0(i64 1, ptr nonnull %6) #28
  call void @llvm.lifetime.start.p0(i64 1, ptr nonnull %7) #28
  %25 = call noundef i32 @_Z18get_composite_hashIPK15ref_vector_coreI4expr19ref_manager_wrapperIS1_11ast_managerEE22default_kind_hash_procIS7_ENS5_9hash_procEEjT_jRKT0_RKT1_(ptr noundef nonnull align 8 dereferenceable(16) %2, i32 noundef %22, ptr noundef nonnull align 1 dereferenceable(1) %6, ptr noundef nonnull align 1 dereferenceable(1) %7)
  call void @llvm.lifetime.end.p0(i64 1, ptr nonnull %7) #28
  call void @llvm.lifetime.end.p0(i64 1, ptr nonnull %6) #28
  br label %_ZNK15ref_vector_coreI4expr19ref_manager_wrapperIS0_11ast_managerEE4hashEv.exit42

_ZNK15ref_vector_coreI4expr19ref_manager_wrapperIS0_11ast_managerEE4hashEv.exit42: ; preds = %_ZNK15ref_vector_coreI4expr19ref_manager_wrapperIS0_11ast_managerEE4hashEv.exit, %_ZNK15ref_vector_coreI4expr19ref_manager_wrapperIS0_11ast_managerEE4sizeEv.exit.i40, %24
  %.0.i41 = phi i32 [ %25, %24 ], [ 0, %_ZNK15ref_vector_coreI4expr19ref_manager_wrapperIS0_11ast_managerEE4sizeEv.exit.i40 ], [ 0, %_ZNK15ref_vector_coreI4expr19ref_manager_wrapperIS0_11ast_managerEE4hashEv.exit ]
  %26 = getelementptr inbounds nuw i8, ptr %3, i64 8
  %27 = load ptr, ptr %26, align 8, !tbaa !805
  %28 = icmp eq ptr %27, null
  br i1 %28, label %_ZNK20ref_pair_vector_coreI4expr19ref_manager_wrapperIS0_11ast_managerEE4sizeEv.exit, label %29

29:                                               ; preds = %_ZNK15ref_vector_coreI4expr19ref_manager_wrapperIS0_11ast_managerEE4hashEv.exit42
  %30 = getelementptr inbounds i8, ptr %27, i64 -4
  %31 = load i32, ptr %30, align 4, !tbaa !101
  br label %_ZNK20ref_pair_vector_coreI4expr19ref_manager_wrapperIS0_11ast_managerEE4sizeEv.exit

_ZNK20ref_pair_vector_coreI4expr19ref_manager_wrapperIS0_11ast_managerEE4sizeEv.exit: ; preds = %_ZNK15ref_vector_coreI4expr19ref_manager_wrapperIS0_11ast_managerEE4hashEv.exit42, %29
  %.0.i.i = phi i32 [ %31, %29 ], [ 0, %_ZNK15ref_vector_coreI4expr19ref_manager_wrapperIS0_11ast_managerEE4hashEv.exit42 ]
  call void @_ZN12seq_rewriter24remove_empty_and_concatsER10ref_vectorI4expr11ast_managerE(ptr noundef nonnull align 8 dereferenceable(497) %0, ptr noundef nonnull align 8 dereferenceable(16) %1)
  call void @_ZN12seq_rewriter24remove_empty_and_concatsER10ref_vectorI4expr11ast_managerE(ptr noundef nonnull align 8 dereferenceable(497) %0, ptr noundef nonnull align 8 dereferenceable(16) %2)
  %32 = call noundef zeroext i1 @_ZN12seq_rewriter11reduce_backER10ref_vectorI4expr11ast_managerES4_R15ref_pair_vectorIS1_S2_E(ptr noundef nonnull align 8 dereferenceable(497) %0, ptr noundef nonnull align 8 dereferenceable(16) %1, ptr noundef nonnull align 8 dereferenceable(16) %2, ptr noundef nonnull align 8 dereferenceable(16) %3)
  br i1 %32, label %33, label %63

33:                                               ; preds = %_ZNK20ref_pair_vector_coreI4expr19ref_manager_wrapperIS0_11ast_managerEE4sizeEv.exit
  %34 = call noundef zeroext i1 @_ZN12seq_rewriter12reduce_frontER10ref_vectorI4expr11ast_managerES4_R15ref_pair_vectorIS1_S2_E(ptr noundef nonnull align 8 dereferenceable(497) %0, ptr noundef nonnull align 8 dereferenceable(16) %1, ptr noundef nonnull align 8 dereferenceable(16) %2, ptr noundef nonnull align 8 dereferenceable(16) %3)
  br i1 %34, label %35, label %63

35:                                               ; preds = %33
  %36 = call noundef zeroext i1 @_ZN12seq_rewriter11reduce_itosER10ref_vectorI4expr11ast_managerES4_R15ref_pair_vectorIS1_S2_E(ptr noundef nonnull align 8 dereferenceable(497) %0, ptr noundef nonnull align 8 dereferenceable(16) %1, ptr noundef nonnull align 8 dereferenceable(16) %2, ptr noundef nonnull align 8 dereferenceable(16) %3)
  br i1 %36, label %37, label %63

37:                                               ; preds = %35
  %38 = call noundef zeroext i1 @_ZN12seq_rewriter11reduce_itosER10ref_vectorI4expr11ast_managerES4_R15ref_pair_vectorIS1_S2_E(ptr noundef nonnull align 8 dereferenceable(497) %0, ptr noundef nonnull align 8 dereferenceable(16) %2, ptr noundef nonnull align 8 dereferenceable(16) %1, ptr noundef nonnull align 8 dereferenceable(16) %3)
  br i1 %38, label %39, label %63

39:                                               ; preds = %37
  %40 = call noundef zeroext i1 @_ZN12seq_rewriter18reduce_value_clashER10ref_vectorI4expr11ast_managerES4_R15ref_pair_vectorIS1_S2_E(ptr noundef nonnull align 8 dereferenceable(497) %0, ptr noundef nonnull align 8 dereferenceable(16) %1, ptr noundef nonnull align 8 dereferenceable(16) %2, ptr nonnull align 8 poison)
  br i1 %40, label %41, label %63

41:                                               ; preds = %39
  %42 = call noundef zeroext i1 @_ZN12seq_rewriter16reduce_by_lengthER10ref_vectorI4expr11ast_managerES4_R15ref_pair_vectorIS1_S2_E(ptr noundef nonnull align 8 dereferenceable(497) %0, ptr noundef nonnull align 8 dereferenceable(16) %1, ptr noundef nonnull align 8 dereferenceable(16) %2, ptr noundef nonnull align 8 dereferenceable(16) %3)
  br i1 %42, label %43, label %63

43:                                               ; preds = %41
  %44 = call noundef zeroext i1 @_ZN12seq_rewriter18reduce_subsequenceER10ref_vectorI4expr11ast_managerES4_R15ref_pair_vectorIS1_S2_E(ptr noundef nonnull align 8 dereferenceable(497) %0, ptr noundef nonnull align 8 dereferenceable(16) %1, ptr noundef nonnull align 8 dereferenceable(16) %2, ptr noundef nonnull align 8 dereferenceable(16) %3)
  br i1 %44, label %45, label %63

45:                                               ; preds = %43
  %46 = call noundef zeroext i1 @_ZN12seq_rewriter18reduce_non_overlapER10ref_vectorI4expr11ast_managerES4_R15ref_pair_vectorIS1_S2_E(ptr noundef nonnull align 8 dereferenceable(497) %0, ptr noundef nonnull align 8 dereferenceable(16) %1, ptr noundef nonnull align 8 dereferenceable(16) %2, ptr nonnull align 8 poison)
  br i1 %46, label %47, label %63

47:                                               ; preds = %45
  %48 = call noundef zeroext i1 @_ZN12seq_rewriter18reduce_non_overlapER10ref_vectorI4expr11ast_managerES4_R15ref_pair_vectorIS1_S2_E(ptr noundef nonnull align 8 dereferenceable(497) %0, ptr noundef nonnull align 8 dereferenceable(16) %2, ptr noundef nonnull align 8 dereferenceable(16) %1, ptr nonnull align 8 poison)
  br i1 %48, label %49, label %63

49:                                               ; preds = %47
  %50 = call noundef i32 @_ZNK15ref_vector_coreI4expr19ref_manager_wrapperIS0_11ast_managerEE4hashEv(ptr noundef nonnull align 8 dereferenceable(16) %1)
  %.not = icmp eq i32 %.0.i, %50
  br i1 %.not, label %51, label %61

51:                                               ; preds = %49
  %52 = call noundef i32 @_ZNK15ref_vector_coreI4expr19ref_manager_wrapperIS0_11ast_managerEE4hashEv(ptr noundef nonnull align 8 dereferenceable(16) %2)
  %.not39 = icmp eq i32 %.0.i41, %52
  br i1 %.not39, label %53, label %61

53:                                               ; preds = %51
  %54 = load ptr, ptr %26, align 8, !tbaa !805
  %55 = icmp eq ptr %54, null
  br i1 %55, label %_ZNK20ref_pair_vector_coreI4expr19ref_manager_wrapperIS0_11ast_managerEE4sizeEv.exit44, label %56

56:                                               ; preds = %53
  %57 = getelementptr inbounds i8, ptr %54, i64 -4
  %58 = load i32, ptr %57, align 4, !tbaa !101
  br label %_ZNK20ref_pair_vector_coreI4expr19ref_manager_wrapperIS0_11ast_managerEE4sizeEv.exit44

_ZNK20ref_pair_vector_coreI4expr19ref_manager_wrapperIS0_11ast_managerEE4sizeEv.exit44: ; preds = %53, %56
  %.0.i.i43 = phi i32 [ %58, %56 ], [ 0, %53 ]
  %59 = icmp ne i32 %.0.i.i43, %.0.i.i
  %60 = zext i1 %59 to i8
  br label %61

61:                                               ; preds = %_ZNK20ref_pair_vector_coreI4expr19ref_manager_wrapperIS0_11ast_managerEE4sizeEv.exit44, %51, %49
  %62 = phi i8 [ 1, %51 ], [ 1, %49 ], [ %60, %_ZNK20ref_pair_vector_coreI4expr19ref_manager_wrapperIS0_11ast_managerEE4sizeEv.exit44 ]
  store i8 %62, ptr %4, align 1, !tbaa !180
  br label %63

63:                                               ; preds = %61, %47, %45, %43, %41, %39, %37, %35, %33, %_ZNK20ref_pair_vector_coreI4expr19ref_manager_wrapperIS0_11ast_managerEE4sizeEv.exit
  %64 = phi i1 [ false, %47 ], [ false, %45 ], [ false, %43 ], [ false, %41 ], [ false, %39 ], [ false, %37 ], [ false, %35 ], [ false, %33 ], [ false, %_ZNK20ref_pair_vector_coreI4expr19ref_manager_wrapperIS0_11ast_managerEE4sizeEv.exit ], [ true, %61 ]
  ret i1 %64
}